; Function Attrs: mustprogress uwtable
define void @_ZNK8facebook5velox8ReadFile6preadvEN5folly5RangeIPKNS0_6common6RegionEEENS3_IPNS2_5IOBufEEE(ptr noundef nonnull align 8 dereferenceable(16) %this, ptr %regions.coerce0, ptr %regions.coerce1, ptr %iobufs.coerce0, ptr %iobufs.coerce1) unnamed_addr #0 align 2 personality ptr @__gxx_personality_v0 {
entry:
  %ref.tmp = alloca %"class.folly::IOBuf", align 8
  %sub.ptr.lhs.cast.i = ptrtoint ptr %regions.coerce1 to i64
  %sub.ptr.rhs.cast.i = ptrtoint ptr %regions.coerce0 to i64
  %sub.ptr.sub.i = sub i64 %sub.ptr.lhs.cast.i, %sub.ptr.rhs.cast.i
  %sub.ptr.div.i = ashr exact i64 %sub.ptr.sub.i, 5
  %sub.ptr.lhs.cast.i10 = ptrtoint ptr %iobufs.coerce1 to i64
  %sub.ptr.rhs.cast.i11 = ptrtoint ptr %iobufs.coerce0 to i64
  %sub.ptr.sub.i12 = sub i64 %sub.ptr.lhs.cast.i10, %sub.ptr.rhs.cast.i11
  %sub.ptr.div.i13 = sdiv exact i64 %sub.ptr.sub.i12, 56
  %cmp.not = icmp eq i64 %sub.ptr.div.i, %sub.ptr.div.i13
  br i1 %cmp.not, label %for.cond.preheader, label %if.then

for.cond.preheader:                               ; preds = %entry
  %cmp424.not = icmp eq ptr %regions.coerce1, %regions.coerce0
  br i1 %cmp424.not, label %for.end, label %for.body.preheader

for.body.preheader:                               ; preds = %for.cond.preheader
  %umax = tail call i64 @llvm.umax.i64(i64 %sub.ptr.div.i, i64 1)
  br label %for.body

if.then:                                          ; preds = %entry
  tail call void @llvm.trap()
  unreachable

for.body:                                         ; preds = %for.body.preheader, %for.body
  %i.025 = phi i64 [ %inc, %for.body ], [ 0, %for.body.preheader ]
  %arrayidx.i = getelementptr inbounds %"struct.facebook::velox::common::Region", ptr %regions.coerce0, i64 %i.025
  %arrayidx.i19 = getelementptr inbounds %"class.folly::IOBuf", ptr %iobufs.coerce0, i64 %i.025
  %length = getelementptr inbounds i8, ptr %arrayidx.i, i64 8
  %0 = load i64, ptr %length, align 8
  call void @_ZN5folly5IOBufC1ENS0_8CreateOpEm(ptr noundef nonnull align 8 dereferenceable(56) %ref.tmp, i32 noundef 0, i64 noundef %0)
  %call7 = call noundef nonnull align 8 dereferenceable(56) ptr @_ZN5folly5IOBufaSEOS0_(ptr noundef nonnull align 8 dereferenceable(56) %arrayidx.i19, ptr noundef nonnull align 8 dereferenceable(56) %ref.tmp) #11
  call void @_ZN5folly5IOBufD1Ev(ptr noundef nonnull align 8 dereferenceable(56) %ref.tmp) #11
  %1 = load i64, ptr %arrayidx.i, align 8
  %2 = load i64, ptr %length, align 8
  %data_.i = getelementptr inbounds i8, ptr %arrayidx.i19, i64 16
  %3 = load ptr, ptr %data_.i, align 8
  %vtable = load ptr, ptr %this, align 8
  %vfn = getelementptr inbounds i8, ptr %vtable, i64 16
  %4 = load ptr, ptr %vfn, align 8
  %call10 = call { i64, ptr } %4(ptr noundef nonnull align 8 dereferenceable(16) %this, i64 noundef %1, i64 noundef %2, ptr noundef %3)
  %5 = load i64, ptr %length, align 8
  %length_.i = getelementptr inbounds i8, ptr %arrayidx.i19, i64 32
  %6 = load i64, ptr %length_.i, align 8
  %add.i = add i64 %6, %5
  store i64 %add.i, ptr %length_.i, align 8
  %inc = add nuw i64 %i.025, 1
  %exitcond.not = icmp eq i64 %inc, %umax
  br i1 %exitcond.not, label %for.end, label %for.body, !llvm.loop !4

for.end:                                          ; preds = %for.body, %for.cond.preheader
  ret void
}